target datalayout = "e-m:e-p270:32:32-p271:32:32-p272:64:64-i64:64-i128:128-f80:128-n8:16:32:64-S128"
target triple = "x86_64-pc-linux-gnu"

%struct.rl_config_t = type { i8, i64, i32, i32, i32, i32 }
%struct.timespec = type { i64, i64 }

@suspend_rate = dso_local global i32 0, align 4
@resume_rate = dso_local global i32 0, align 4
@power_save_interval = internal global i16 10, align 2
@power_save_min_interval = internal global i16 0, align 2
@resume_rl_config = internal global %struct.rl_config_t zeroinitializer, align 8
@suspend_rl_config = internal global %struct.rl_config_t zeroinitializer, align 8

; Function Attrs: nounwind uwtable
define internal i64 @_timespec_to_msec(ptr noundef %0) #0 {
  %2 = alloca ptr, align 8
  store ptr %0, ptr %2, align 8
  %3 = load ptr, ptr %2, align 8
  %4 = getelementptr inbounds nuw %struct.timespec, ptr %3, i32 0, i32 0
  %5 = load i64, ptr %4, align 8
  %6 = mul nsw i64 %5, 1000
  %7 = load ptr, ptr %2, align 8
  %8 = getelementptr inbounds nuw %struct.timespec, ptr %7, i32 0, i32 1
  %9 = load i64, ptr %8, align 8
  %10 = sdiv i64 %9, 1000000
  %11 = add nsw i64 %6, %10
  ret i64 %11
}

; Function Attrs: nounwind uwtable
define internal void @_rl_init(ptr noundef %0, i32 noundef %1, i32 noundef %2, i32 noundef %3, i32 noundef %4) #0 {
  %6 = alloca ptr, align 8
  %7 = alloca i32, align 4
  %8 = alloca i32, align 4
  %9 = alloca i32, align 4
  %10 = alloca i32, align 4
  %11 = alloca %struct.timespec, align 8
  store ptr %0, ptr %6, align 8
  store i32 %1, ptr %7, align 4
  store i32 %2, ptr %8, align 4
  store i32 %3, ptr %9, align 4
  store i32 %4, ptr %10, align 4
  call void @llvm.lifetime.start.p0(i64 16, ptr %11) #9
  call void @llvm.memset.p0.i64(ptr align 8 %11, i8 0, i64 16, i1 false)
  %12 = load ptr, ptr %6, align 8
  %13 = getelementptr inbounds nuw %struct.rl_config_t, ptr %12, i32 0, i32 0
  store i8 1, ptr %13, align 8
  %14 = call i64 @_timespec_to_msec(ptr noundef %11)
  %15 = load ptr, ptr %6, align 8
  %16 = getelementptr inbounds nuw %struct.rl_config_t, ptr %15, i32 0, i32 1
  store i64 %14, ptr %16, align 8
  %17 = load i32, ptr %8, align 4
  %18 = load ptr, ptr %6, align 8
  %19 = getelementptr inbounds nuw %struct.rl_config_t, ptr %18, i32 0, i32 2
  store i32 %17, ptr %19, align 8
  %20 = load i32, ptr %7, align 4
  %21 = load ptr, ptr %6, align 8
  %22 = getelementptr inbounds nuw %struct.rl_config_t, ptr %21, i32 0, i32 3
  store i32 %20, ptr %22, align 4
  %23 = load i32, ptr %9, align 4
  %24 = load ptr, ptr %6, align 8
  %25 = getelementptr inbounds nuw %struct.rl_config_t, ptr %24, i32 0, i32 4
  store i32 %23, ptr %25, align 8
  %26 = load i32, ptr %10, align 4
  %27 = load ptr, ptr %6, align 8
  %28 = getelementptr inbounds nuw %struct.rl_config_t, ptr %27, i32 0, i32 5
  store i32 %26, ptr %28, align 4
  call void @llvm.lifetime.end.p0(i64 16, ptr %11) #9
  ret void
}

; Function Attrs: nounwind uwtable
define internal void @power_save_rl_setup() #0 {
  %1 = alloca i32, align 4
  %2 = alloca i32, align 4
  %3 = alloca i32, align 4
  call void @llvm.lifetime.start.p0(i64 4, ptr %1) #9
  call void @llvm.lifetime.start.p0(i64 4, ptr %2) #9
  call void @llvm.lifetime.start.p0(i64 4, ptr %3) #9
  %4 = load i16, ptr @power_save_interval, align 2
  %5 = zext i16 %4 to i32
  %6 = load i16, ptr @power_save_min_interval, align 2
  %7 = zext i16 %6 to i32
  %8 = icmp sgt i32 %5, %7
  br i1 %8, label %9, label %12

9:                                                ; preds = %0
  %10 = load i16, ptr @power_save_interval, align 2
  %11 = zext i16 %10 to i32
  br label %15

12:                                               ; preds = %0
  %13 = load i16, ptr @power_save_min_interval, align 2
  %14 = zext i16 %13 to i32
  br label %15

15:                                               ; preds = %12, %9
  %16 = phi i32 [ %11, %9 ], [ %14, %12 ]
  %17 = icmp sgt i32 1, %16
  br i1 %17, label %18, label %19

18:                                               ; preds = %15
  br label %33

19:                                               ; preds = %15
  %20 = load i16, ptr @power_save_interval, align 2
  %21 = zext i16 %20 to i32
  %22 = load i16, ptr @power_save_min_interval, align 2
  %23 = zext i16 %22 to i32
  %24 = icmp sgt i32 %21, %23
  br i1 %24, label %25, label %28

25:                                               ; preds = %19
  %26 = load i16, ptr @power_save_interval, align 2
  %27 = zext i16 %26 to i32
  br label %31

28:                                               ; preds = %19
  %29 = load i16, ptr @power_save_min_interval, align 2
  %30 = zext i16 %29 to i32
  br label %31

31:                                               ; preds = %28, %25
  %32 = phi i32 [ %27, %25 ], [ %30, %28 ]
  br label %33

33:                                               ; preds = %31, %18
  %34 = phi i32 [ 1, %18 ], [ %32, %31 ]
  store i32 %34, ptr %3, align 4
  %35 = load i32, ptr @resume_rate, align 4
  %36 = icmp ne i32 %35, 0
  br i1 %36, label %37, label %53

37:                                               ; preds = %33
  %38 = load i32, ptr @resume_rate, align 4
  %39 = load i32, ptr %3, align 4
  %40 = mul i32 %38, %39
  %41 = icmp ult i32 %40, 60
  br i1 %41, label %42, label %43

42:                                               ; preds = %37
  store i32 1, ptr %1, align 4
  br label %48

43:                                               ; preds = %37
  %44 = load i32, ptr @resume_rate, align 4
  %45 = load i32, ptr %3, align 4
  %46 = mul i32 %44, %45
  %47 = udiv i32 %46, 60
  store i32 %47, ptr %1, align 4
  br label %48

48:                                               ; preds = %43, %42
  %49 = load i32, ptr @resume_rate, align 4
  %50 = sdiv i32 60000, %49
  store i32 %50, ptr %2, align 4
  %51 = load i32, ptr %1, align 4
  %52 = load i32, ptr %2, align 4
  call void @_rl_init(ptr noundef @resume_rl_config, i32 noundef 1, i32 noundef %51, i32 noundef %52, i32 noundef 0)
  br label %53

53:                                               ; preds = %48, %33
  %54 = load i32, ptr @suspend_rate, align 4
  %55 = icmp ne i32 %54, 0
  br i1 %55, label %56, label %72

56:                                               ; preds = %53
  %57 = load i32, ptr @suspend_rate, align 4
  %58 = load i32, ptr %3, align 4
  %59 = mul i32 %57, %58
  %60 = icmp ult i32 %59, 60
  br i1 %60, label %61, label %62

61:                                               ; preds = %56
  store i32 1, ptr %1, align 4
  br label %67

62:                                               ; preds = %56
  %63 = load i32, ptr @suspend_rate, align 4
  %64 = load i32, ptr %3, align 4
  %65 = mul i32 %63, %64
  %66 = udiv i32 %65, 60
  store i32 %66, ptr %1, align 4
  br label %67

67:                                               ; preds = %62, %61
  %68 = load i32, ptr @suspend_rate, align 4
  %69 = sdiv i32 60000, %68
  store i32 %69, ptr %2, align 4
  %70 = load i32, ptr %1, align 4
  %71 = load i32, ptr %2, align 4
  call void @_rl_init(ptr noundef @suspend_rl_config, i32 noundef 1, i32 noundef %70, i32 noundef %71, i32 noundef 0)
  br label %72

72:                                               ; preds = %67, %53
  call void @llvm.lifetime.end.p0(i64 4, ptr %3) #9
  call void @llvm.lifetime.end.p0(i64 4, ptr %2) #9
  call void @llvm.lifetime.end.p0(i64 4, ptr %1) #9
  ret void
}